target datalayout = "e-m:e-p270:32:32-p271:32:32-p272:64:64-i64:64-i128:128-f80:128-n8:16:32:64-S128"
target triple = "x86_64-pc-linux-gnu"

%"class.net::TcpCubicSenderBase" = type <{ %"class.net::SendAlgorithmInterface", %"class.net::HybridSlowStart", %"class.net::PrrSender", ptr, ptr, i8, [3 x i8], i32, i64, i64, i64, i8, i8, i8, i8, i8, [3 x i8] }>
%"class.net::SendAlgorithmInterface" = type { ptr }
%"class.net::HybridSlowStart" = type { i8, i32, i64, i64, i32, %"class.net::QuicTime::Delta" }
%"class.net::QuicTime::Delta" = type { %"class.base::TimeDelta", i64 }
%"class.base::TimeDelta" = type { i64 }
%"class.net::PrrSender" = type { i64, i64, i64, i64 }
%"class.net::QuicBandwidth" = type { i64 }
%"class.net::RttStats" = type { %"class.net::QuicTime::Delta", %"class.net::QuicTime::Delta", %"class.net::QuicTime::Delta", %"class.net::QuicTime::Delta", %"class.net::QuicTime::Delta", i64, %"class.net::QuicTime::Delta", %"class.net::QuicTime", i32, %"class.net::WindowedFilter" }
%"class.net::QuicTime" = type { i64 }
%"class.net::WindowedFilter" = type { %"class.net::QuicTime::Delta", %"class.net::QuicTime::Delta", [3 x %"struct.net::WindowedFilter<net::QuicTime::Delta, net::MinFilter<net::QuicTime::Delta>, net::QuicTime, net::QuicTime::Delta>::Sample"] }
%"struct.net::WindowedFilter<net::QuicTime::Delta, net::MinFilter<net::QuicTime::Delta>, net::QuicTime, net::QuicTime::Delta>::Sample" = type { %"class.net::QuicTime::Delta", %"class.net::QuicTime" }

; Function Attrs: inlinehint mustprogress nounwind uwtable
define linkonce_odr noundef zeroext i1 @_ZNK3net8QuicTime5Delta6IsZeroEv(ptr noundef nonnull align 8 dereferenceable(16) %0) #1 comdat align 2 {
  %2 = alloca ptr, align 8
  store ptr %0, ptr %2, align 8, !tbaa !98
  %3 = load ptr, ptr %2, align 8
  %4 = getelementptr inbounds nuw %"class.net::QuicTime::Delta", ptr %3, i32 0, i32 1
  %5 = load i64, ptr %4, align 8, !tbaa !100
  %6 = icmp eq i64 %5, 0
  ret i1 %6
}

; Function Attrs: mustprogress nounwind uwtable
define linkonce_odr { i64, i64 } @_ZNK3net8RttStats12smoothed_rttEv(ptr noundef nonnull align 8 dereferenceable(224) %0) #3 comdat align 2 {
  %2 = alloca %"class.net::QuicTime::Delta", align 8
  %3 = alloca ptr, align 8
  store ptr %0, ptr %3, align 8, !tbaa !10
  %4 = load ptr, ptr %3, align 8
  %5 = getelementptr inbounds nuw %"class.net::RttStats", ptr %4, i32 0, i32 2
  call void @llvm.memcpy.p0.p0.i64(ptr align 8 %2, ptr align 8 %5, i64 16, i1 false), !tbaa.struct !57
  %6 = load { i64, i64 }, ptr %2, align 8
  ret { i64, i64 } %6
}

; Function Attrs: mustprogress uwtable
define i64 @_ZNK3net18TcpCubicSenderBase17BandwidthEstimateEv(ptr noundef nonnull align 8 dereferenceable(141) %0) unnamed_addr #0 align 2 {
  %2 = alloca %"class.net::QuicBandwidth", align 8
  %3 = alloca ptr, align 8
  %4 = alloca %"class.net::QuicTime::Delta", align 8
  %5 = alloca i32, align 4
  %6 = alloca %"class.net::QuicTime::Delta", align 8
  store ptr %0, ptr %3, align 8, !tbaa !3
  %7 = load ptr, ptr %3, align 8
  call void @llvm.lifetime.start.p0(i64 16, ptr %4) #13
  %8 = getelementptr inbounds nuw %"class.net::TcpCubicSenderBase", ptr %7, i32 0, i32 3
  %9 = load ptr, ptr %8, align 8, !tbaa !18
  %10 = call { i64, i64 } @_ZNK3net8RttStats12smoothed_rttEv(ptr noundef nonnull align 8 dereferenceable(224) %9)
  %11 = getelementptr inbounds nuw { i64, i64 }, ptr %4, i32 0, i32 0
  %12 = extractvalue { i64, i64 } %10, 0
  store i64 %12, ptr %11, align 8
  %13 = getelementptr inbounds nuw { i64, i64 }, ptr %4, i32 0, i32 1
  %14 = extractvalue { i64, i64 } %10, 1
  store i64 %14, ptr %13, align 8
  %15 = call noundef zeroext i1 @_ZNK3net8QuicTime5Delta6IsZeroEv(ptr noundef nonnull align 8 dereferenceable(16) %4)
  br i1 %15, label %16, label %19

16:                                               ; preds = %1
  %17 = call i64 @_ZN3net13QuicBandwidth4ZeroEv()
  %18 = getelementptr inbounds nuw %"class.net::QuicBandwidth", ptr %2, i32 0, i32 0
  store i64 %17, ptr %18, align 8
  store i32 1, ptr %5, align 4
  br label %30

19:                                               ; preds = %1
  %20 = load ptr, ptr %7, align 8, !tbaa !16
  %21 = getelementptr inbounds ptr, ptr %20, i64 12
  %22 = load ptr, ptr %21, align 8
  %23 = call noundef i64 %22(ptr noundef nonnull align 8 dereferenceable(8) %7)
  call void @llvm.memcpy.p0.p0.i64(ptr align 8 %6, ptr align 8 %4, i64 16, i1 false), !tbaa.struct !57
  %24 = getelementptr inbounds nuw { i64, i64 }, ptr %6, i32 0, i32 0
  %25 = load i64, ptr %24, align 8
  %26 = getelementptr inbounds nuw { i64, i64 }, ptr %6, i32 0, i32 1
  %27 = load i64, ptr %26, align 8
  %28 = call i64 @_ZN3net13QuicBandwidth21FromBytesAndTimeDeltaEmNS_8QuicTime5DeltaE(i64 noundef %23, i64 %25, i64 %27)
  %29 = getelementptr inbounds nuw %"class.net::QuicBandwidth", ptr %2, i32 0, i32 0
  store i64 %28, ptr %29, align 8
  store i32 1, ptr %5, align 4
  br label %30

30:                                               ; preds = %19, %16
  call void @llvm.lifetime.end.p0(i64 16, ptr %4) #13
  %31 = getelementptr inbounds nuw %"class.net::QuicBandwidth", ptr %2, i32 0, i32 0
  %32 = load i64, ptr %31, align 8
  ret i64 %32
}