; Function Attrs: mustprogress uwtable
define i64 @_ZNK3net18TcpCubicSenderBase17BandwidthEstimateEv(ptr noundef nonnull align 8 dereferenceable(141) %0) unnamed_addr #0 align 2 {
  %2 = getelementptr inbounds nuw i8, ptr %0, i64 88
  %3 = load ptr, ptr %2, align 8, !tbaa !6
  %.sroa.2.0..sroa_idx.i = getelementptr inbounds nuw i8, ptr %3, i64 40
  %.sroa.2.0.copyload.i = load i64, ptr %.sroa.2.0..sroa_idx.i, align 8, !tbaa !37
  %4 = icmp eq i64 %.sroa.2.0.copyload.i, 0
  br i1 %4, label %5, label %7

5:                                                ; preds = %1
  %6 = tail call i64 @_ZN3net13QuicBandwidth4ZeroEv()
  br label %14

7:                                                ; preds = %1
  %8 = getelementptr inbounds nuw i8, ptr %3, i64 32
  %.sroa.0.0.copyload.i = load i64, ptr %8, align 8, !tbaa !37
  %9 = load ptr, ptr %0, align 8, !tbaa !3
  %10 = getelementptr inbounds nuw i8, ptr %9, i64 96
  %11 = load ptr, ptr %10, align 8
  %12 = tail call noundef i64 %11(ptr noundef nonnull align 8 dereferenceable(8) %0)
  %13 = tail call i64 @_ZN3net13QuicBandwidth21FromBytesAndTimeDeltaEmNS_8QuicTime5DeltaE(i64 noundef %12, i64 %.sroa.0.0.copyload.i, i64 %.sroa.2.0.copyload.i)
  br label %14

14:                                               ; preds = %7, %5
  %.sroa.01.0 = phi i64 [ %6, %5 ], [ %13, %7 ]
  ret i64 %.sroa.01.0
}